; ModuleID = 'bench/linux/original/wmi-bmof.ll'
source_filename = "bench/linux/original/wmi-bmof.ll"
target datalayout = "e-m:e-p270:32:32-p271:32:32-p272:64:64-i64:64-i128:128-f80:128-n8:16:32:64-S128"
target triple = "x86_64-unknown-linux-gnu"

module asm ".section\09\22.initcall6.init\22, \22a\22\09\09"
module asm "__initcall__kmod_wmi_bmof__317_99_wmi_bmof_driver_init6:\09\09\09"
module asm ".long\09wmi_bmof_driver_init - .\09"
module asm ".previous\09\09\09\09\09"

%struct.wmi_driver = type { %struct.device_driver, ptr, i8, ptr, ptr, ptr }
%struct.device_driver = type { ptr, ptr, ptr, ptr, i8, i32, ptr, ptr, ptr, ptr, ptr, ptr, ptr, ptr, ptr, ptr, ptr, ptr, ptr }
%struct.wmi_device_id = type { [37 x i8], ptr }

@__UNIQUE_ID___addressable_wmi_bmof_driver_init318 = internal global ptr @wmi_bmof_driver_init, section ".discard.addressable", align 8
@wmi_bmof_driver = internal global %struct.wmi_driver { %struct.device_driver { ptr @.str, ptr null, ptr null, ptr null, i8 0, i32 0, ptr null, ptr null, ptr null, ptr null, ptr null, ptr null, ptr null, ptr null, ptr null, ptr null, ptr null, ptr null, ptr null }, ptr @wmi_bmof_id_table, i8 0, ptr @wmi_bmof_probe, ptr @wmi_bmof_remove, ptr null }, align 8
@__exitcall_wmi_bmof_driver_exit = internal global ptr @wmi_bmof_driver_exit, section ".exitcall.exit", align 8
@__UNIQUE_ID_author319 = internal constant [52 x i8] c"wmi_bmof.author=Andrew Lutomirski <luto@kernel.org>\00", section ".modinfo", align 1
@__UNIQUE_ID_description320 = internal constant [52 x i8] c"wmi_bmof.description=WMI embedded Binary MOF driver\00", section ".modinfo", align 1
@__UNIQUE_ID_file321 = internal constant [44 x i8] c"wmi_bmof.file=drivers/platform/x86/wmi-bmof\00", section ".modinfo", align 1
@__UNIQUE_ID_license322 = internal constant [21 x i8] c"wmi_bmof.license=GPL\00", section ".modinfo", align 1
@.str = private unnamed_addr constant [9 x i8] c"wmi-bmof\00", align 1
@wmi_bmof_id_table = internal constant [2 x %struct.wmi_device_id] [%struct.wmi_device_id { [37 x i8] c"05901221-D566-11D1-B2F0-00A0C9062910\00", ptr null }, %struct.wmi_device_id zeroinitializer], align 16
@.str.1 = private unnamed_addr constant [27 x i8] c"failed to read Binary MOF\0A\00", align 1
@.str.2 = private unnamed_addr constant [28 x i8] c"Binary MOF is not a buffer\0A\00", align 1
@.str.3 = private unnamed_addr constant [5 x i8] c"bmof\00", align 1
@llvm.compiler.used = appending global [7 x ptr] [ptr @__UNIQUE_ID___addressable_wmi_bmof_driver_init318, ptr @__UNIQUE_ID_author319, ptr @__UNIQUE_ID_description320, ptr @__UNIQUE_ID_file321, ptr @__UNIQUE_ID_license322, ptr @__exitcall_wmi_bmof_driver_exit, ptr @wmi_bmof_driver_exit], section "llvm.metadata"

; Function Attrs: cold fn_ret_thunk_extern nounwind null_pointer_is_valid optsize
define internal i32 @wmi_bmof_driver_init() #0 section ".init.text" align 16 {
  %1 = tail call i32 @__wmi_driver_register(ptr noundef nonnull @wmi_bmof_driver, ptr noundef null) #5
  ret i32 %1
}

; Function Attrs: cold fn_ret_thunk_extern nounwind null_pointer_is_valid optsize
define internal void @wmi_bmof_driver_exit() #0 section ".exit.text" align 16 {
  tail call void @wmi_driver_unregister(ptr noundef nonnull @wmi_bmof_driver) #5
  ret void
}

; Function Attrs: null_pointer_is_valid
declare dso_local void @wmi_driver_unregister(ptr noundef) local_unnamed_addr #1

; Function Attrs: null_pointer_is_valid
declare dso_local i32 @__wmi_driver_register(ptr noundef, ptr noundef) local_unnamed_addr #1

; Function Attrs: fn_ret_thunk_extern nounwind null_pointer_is_valid
define internal i32 @wmi_bmof_probe(ptr noundef %0, ptr nocapture readnone %1) #2 align 16 {
  %3 = tail call noalias noundef dereferenceable_or_null(80) ptr @devm_kmalloc(ptr noundef %0, i64 noundef 80, i32 noundef 3520) #6
  %4 = icmp eq ptr %3, null
  br i1 %4, label %27, label %5

5:                                                ; preds = %2
  %6 = getelementptr inbounds i8, ptr %0, i64 120
  store ptr %3, ptr %6, align 8
  %7 = tail call ptr @wmidev_block_query(ptr noundef %0, i8 noundef zeroext 0) #5
  store ptr %7, ptr %3, align 8
  %8 = icmp eq ptr %7, null
  br i1 %8, label %9, label %10

9:                                                ; preds = %5
  tail call void (ptr, ptr, ...) @_dev_err(ptr noundef %0, ptr noundef nonnull @.str.1) #7
  br label %27

10:                                               ; preds = %5
  %11 = load i32, ptr %7, align 8
  %12 = icmp eq i32 %11, 3
  br i1 %12, label %14, label %13

13:                                               ; preds = %10
  tail call void (ptr, ptr, ...) @_dev_err(ptr noundef %0, ptr noundef nonnull @.str.2) #7
  br label %24

14:                                               ; preds = %10
  %15 = getelementptr inbounds i8, ptr %3, i64 8
  store ptr @.str.3, ptr %15, align 8
  %16 = getelementptr inbounds i8, ptr %3, i64 16
  store i16 256, ptr %16, align 8
  %17 = getelementptr inbounds i8, ptr %3, i64 48
  store ptr @read_bmof, ptr %17, align 8
  %18 = getelementptr inbounds i8, ptr %7, i64 4
  %19 = load i32, ptr %18, align 4
  %20 = zext i32 %19 to i64
  %21 = getelementptr inbounds i8, ptr %3, i64 24
  store i64 %20, ptr %21, align 8
  %22 = tail call i32 @device_create_bin_file(ptr noundef %0, ptr noundef %15) #5
  %23 = icmp eq i32 %22, 0
  br i1 %23, label %27, label %24

24:                                               ; preds = %14, %13
  %25 = phi i32 [ -5, %13 ], [ %22, %14 ]
  %26 = load ptr, ptr %3, align 8
  tail call void @kfree(ptr noundef %26) #5
  br label %27

27:                                               ; preds = %24, %14, %9, %2
  %28 = phi i32 [ %25, %24 ], [ -5, %9 ], [ -12, %2 ], [ 0, %14 ]
  ret i32 %28
}

; Function Attrs: fn_ret_thunk_extern nounwind null_pointer_is_valid
define internal void @wmi_bmof_remove(ptr noundef %0) #2 align 16 {
  %2 = getelementptr inbounds i8, ptr %0, i64 120
  %3 = load ptr, ptr %2, align 8
  %4 = getelementptr inbounds i8, ptr %3, i64 8
  tail call void @device_remove_bin_file(ptr noundef %0, ptr noundef %4) #5
  %5 = load ptr, ptr %3, align 8
  tail call void @kfree(ptr noundef %5) #5
  ret void
}

; Function Attrs: null_pointer_is_valid
declare dso_local ptr @wmidev_block_query(ptr noundef, i8 noundef zeroext) local_unnamed_addr #1

; Function Attrs: cold null_pointer_is_valid
declare dso_local void @_dev_err(ptr noundef, ptr noundef, ...) local_unnamed_addr #3

; Function Attrs: fn_ret_thunk_extern nounwind null_pointer_is_valid
define internal i64 @read_bmof(ptr nocapture readnone %0, ptr nocapture readnone %1, ptr nocapture noundef readonly %2, ptr noundef %3, i64 noundef %4, i64 noundef %5) #2 align 16 {
  %7 = alloca i64, align 8
  store i64 %4, ptr %7, align 8
  %8 = getelementptr i8, ptr %2, i64 -8
  %9 = load ptr, ptr %8, align 8
  %10 = getelementptr inbounds i8, ptr %9, i64 8
  %11 = load ptr, ptr %10, align 8
  %12 = getelementptr inbounds i8, ptr %9, i64 4
  %13 = load i32, ptr %12, align 4
  %14 = zext i32 %13 to i64
  %15 = call i64 @memory_read_from_buffer(ptr noundef %3, i64 noundef %5, ptr noundef nonnull %7, ptr noundef %11, i64 noundef %14) #5
  ret i64 %15
}

; Function Attrs: null_pointer_is_valid
declare dso_local i32 @device_create_bin_file(ptr noundef, ptr noundef) local_unnamed_addr #1

; Function Attrs: null_pointer_is_valid
declare dso_local void @kfree(ptr noundef) local_unnamed_addr #1

; Function Attrs: null_pointer_is_valid allocsize(1)
declare dso_local noalias ptr @devm_kmalloc(ptr noundef, i64 noundef, i32 noundef) local_unnamed_addr #4

; Function Attrs: null_pointer_is_valid
declare dso_local i64 @memory_read_from_buffer(ptr noundef, i64 noundef, ptr noundef, ptr noundef, i64 noundef) local_unnamed_addr #1

; Function Attrs: null_pointer_is_valid
declare dso_local void @device_remove_bin_file(ptr noundef, ptr noundef) local_unnamed_addr #1


!llvm.module.flags = !{!0, !1, !2, !3, !4}

!0 = !{i32 1, !"wchar_size", i32 2}
!1 = !{i32 8, !"cf-protection-branch", i32 1}
!2 = !{i32 4, !"function_return_thunk_extern", i32 1}
!3 = !{i32 4, !"indirect_branch_cs_prefix", i32 1}
!4 = !{i32 4, !"SkipRaxSetup", i32 1}
